target datalayout = "e-m:e-p270:32:32-p271:32:32-p272:64:64-i64:64-i128:128-f80:128-n8:16:32:64-S128"
target triple = "x86_64-pc-linux-gnu"

%struct.mbedtls_mpi = type { ptr, i16, i16 }
%struct.mbedtls_rsa_context = type { i32, i64, %struct.mbedtls_mpi, %struct.mbedtls_mpi, %struct.mbedtls_mpi, %struct.mbedtls_mpi, %struct.mbedtls_mpi, %struct.mbedtls_mpi, %struct.mbedtls_mpi, %struct.mbedtls_mpi, %struct.mbedtls_mpi, %struct.mbedtls_mpi, %struct.mbedtls_mpi, %struct.mbedtls_mpi, %struct.mbedtls_mpi, i32, i32 }

; Function Attrs: nounwind uwtable
define hidden i32 @mbedtls_rsa_pkcs1_decrypt(ptr noundef %0, ptr noundef %1, ptr noundef %2, ptr noundef %3, ptr noundef %4, ptr noundef %5, i64 noundef %6) #0 {
  %8 = alloca i32, align 4
  %9 = alloca ptr, align 8
  %10 = alloca ptr, align 8
  %11 = alloca ptr, align 8
  %12 = alloca ptr, align 8
  %13 = alloca ptr, align 8
  %14 = alloca ptr, align 8
  %15 = alloca i64, align 8
  store ptr %0, ptr %9, align 8, !tbaa !3
  store ptr %1, ptr %10, align 8, !tbaa !26
  store ptr %2, ptr %11, align 8, !tbaa !26
  store ptr %3, ptr %12, align 8, !tbaa !40
  store ptr %4, ptr %13, align 8, !tbaa !8
  store ptr %5, ptr %14, align 8, !tbaa !8
  store i64 %6, ptr %15, align 8, !tbaa !10
  %16 = load ptr, ptr %9, align 8, !tbaa !3
  %17 = getelementptr inbounds nuw %struct.mbedtls_rsa_context, ptr %16, i32 0, i32 15
  %18 = load i32, ptr %17, align 8, !tbaa !24
  switch i32 %18, label %37 [
    i32 0, label %19
    i32 1, label %28
  ]

19:                                               ; preds = %7
  %20 = load ptr, ptr %9, align 8, !tbaa !3
  %21 = load ptr, ptr %10, align 8, !tbaa !26
  %22 = load ptr, ptr %11, align 8, !tbaa !26
  %23 = load ptr, ptr %12, align 8, !tbaa !40
  %24 = load ptr, ptr %13, align 8, !tbaa !8
  %25 = load ptr, ptr %14, align 8, !tbaa !8
  %26 = load i64, ptr %15, align 8, !tbaa !10
  %27 = call i32 @mbedtls_rsa_rsaes_pkcs1_v15_decrypt(ptr noundef %20, ptr noundef %21, ptr noundef %22, ptr noundef %23, ptr noundef %24, ptr noundef %25, i64 noundef %26)
  store i32 %27, ptr %8, align 4
  br label %38

28:                                               ; preds = %7
  %29 = load ptr, ptr %9, align 8, !tbaa !3
  %30 = load ptr, ptr %10, align 8, !tbaa !26
  %31 = load ptr, ptr %11, align 8, !tbaa !26
  %32 = load ptr, ptr %12, align 8, !tbaa !40
  %33 = load ptr, ptr %13, align 8, !tbaa !8
  %34 = load ptr, ptr %14, align 8, !tbaa !8
  %35 = load i64, ptr %15, align 8, !tbaa !10
  %36 = call i32 @mbedtls_rsa_rsaes_oaep_decrypt(ptr noundef %29, ptr noundef %30, ptr noundef %31, ptr noundef null, i64 noundef 0, ptr noundef %32, ptr noundef %33, ptr noundef %34, i64 noundef %35)
  store i32 %36, ptr %8, align 4
  br label %38

37:                                               ; preds = %7
  store i32 -16640, ptr %8, align 4
  br label %38

38:                                               ; preds = %37, %28, %19
  %39 = load i32, ptr %8, align 4
  ret i32 %39
}