; Function Attrs: nounwind uwtable
define hidden i32 @mbedtls_rsa_pkcs1_decrypt(ptr noundef %0, ptr noundef %1, ptr noundef %2, ptr noundef writeonly captures(none) %3, ptr noundef %4, ptr noundef writeonly captures(none) %5, i64 noundef %6) local_unnamed_addr #0 {
  %8 = getelementptr inbounds nuw i8, ptr %0, i64 224
  %9 = load i32, ptr %8, align 8, !tbaa !17
  switch i32 %9, label %14 [
    i32 0, label %10
    i32 1, label %12
  ]

10:                                               ; preds = %7
  %11 = tail call i32 @mbedtls_rsa_rsaes_pkcs1_v15_decrypt(ptr noundef nonnull %0, ptr noundef %1, ptr noundef %2, ptr noundef %3, ptr noundef %4, ptr noundef %5, i64 noundef %6)
  br label %14

12:                                               ; preds = %7
  %13 = tail call i32 @mbedtls_rsa_rsaes_oaep_decrypt(ptr noundef nonnull %0, ptr noundef %1, ptr noundef %2, ptr noundef null, i64 noundef 0, ptr noundef %3, ptr noundef %4, ptr noundef %5, i64 noundef %6)
  br label %14

14:                                               ; preds = %7, %12, %10
  %.0 = phi i32 [ %13, %12 ], [ %11, %10 ], [ -16640, %7 ]
  ret i32 %.0
}